; Function Attrs: mustprogress nofree norecurse nosync nounwind willreturn memory(read, argmem: readwrite, inaccessiblemem: none) uwtable
define hidden range(i32 1, 65537) i32 @Curl_pp_getsock(ptr noundef readonly captures(none) %0, ptr noundef readonly captures(none) %1, ptr noundef writeonly captures(none) initializes((0, 4)) %2) local_unnamed_addr #6 {
  %4 = getelementptr inbounds nuw i8, ptr %0, i64 24
  %5 = load ptr, ptr %4, align 8, !tbaa !3
  %6 = getelementptr inbounds nuw i8, ptr %5, i64 568
  %7 = load i32, ptr %6, align 8, !tbaa !80
  store i32 %7, ptr %2, align 4, !tbaa !80
  %8 = getelementptr inbounds nuw i8, ptr %1, i64 24
  %9 = load i64, ptr %8, align 8, !tbaa !82
  %.not = icmp eq i64 %9, 0
  %. = select i1 %.not, i32 1, i32 65536
  ret i32 %.
}